; Function Attrs: nounwind sspstrong uwtable
define internal void @vfio_err_notifier_handler(ptr noundef %opaque) #0 {
entry:
  %err_notifier = getelementptr inbounds nuw i8, ptr %opaque, i64 3464
  %call = tail call i32 @event_notifier_test_and_clear(ptr noundef nonnull %err_notifier) #23
  %tobool.not = icmp eq i32 %call, 0
  br i1 %tobool.not, label %return, label %if.end

if.end:                                           ; preds = %entry
  %name = getelementptr inbounds nuw i8, ptr %opaque, i64 2680
  %0 = load ptr, ptr %name, align 8
  tail call void (ptr, ...) @error_report(ptr noundef nonnull @.str.225, ptr noundef nonnull @__func__.vfio_err_notifier_handler, ptr noundef %0) #23
  %call1 = tail call i32 @vm_stop(i32 noundef 2) #23
  br label %return

return:                                           ; preds = %entry, %if.end
  ret void
}